(dp0
S'2017-3-20'
p1
(lp2
(S'08:26:00'
p3
S'S'
p4
tp5
a(S'08:27:40'
p6
S'W'
p7
tp8
a(S'08:32:25'
p9
S'D_S'
p10
tp11
a(S'08:33:14'
p12
g7
tp13
a(S'08:38:25'
p14
g10
tp15
a(S'08:38:40'
p16
g7
tp17
a(S'08:41:27'
p18
g4
tp19
a(S'08:43:20'
p20
S'T_S'
p21
tp22
a(S'08:51:54'
p23
S'T_T'
p24
tp25
a(S'08:52:04'
p26
g4
tp27
a(S'08:53:59'
p28
S'T_D'
p29
tp30
a(S'08:54:54'
p31
g21
tp32
a(S'08:55:36'
p33
g29
tp34
a(S'08:57:35'
p35
g21
tp36
a(S'08:58:27'
p37
g29
tp38
a(S'08:59:27'
p39
g21
tp40
a(S'08:59:37'
p41
g7
tp42
a(S'08:59:50'
p43
S'U_S'
p44
tp45
a(S'09:00:06'
p46
g7
tp47
a(S'09:00:16'
p48
g44
tp49
a(S'09:01:08'
p50
g7
tp51
a(S'09:03:20'
p52
S'E'
p53
tp54
a(S'09:04:52'
p55
g7
tp56
a(S'21:12:00'
p57
g21
tp58
a(S'21:17:08'
p59
S'E_D'
p60
tp61
a(S'21:21:00'
p62
g29
tp63
a(S'21:22:15'
p64
g21
tp65
a(S'21:22:45'
p66
g29
tp67
a(S'21:25:15'
p68
g21
tp69
a(S'21:25:45'
p70
g29
tp71
a(S'21:33:30'
p72
g21
tp73
a(S'21:33:35'
p74
g7
tp75
a(S'21:34:57'
p76
g44
tp77
a(S'21:35:10'
p78
g7
tp79
a(S'21:35:55'
p80
g44
tp81
a(S'21:35:16'
p82
g7
tp83
asS'2017-3-19'
p84
(lp85
(S'10:10:01'
p86
g7
tp87
a(S'10:19:00'
p88
S'T_B'
p89
tp90
a(S'10:27:00'
p91
S'T_E'
p92
tp93
a(S'10:28:00'
p94
S'P_W'
p95
tp96
a(S'10:31:00'
p97
g89
tp98
a(S'10:32:00'
p99
g21
tp100
a(S'10:35:00'
p101
g21
tp102
a(S'10:38:00'
p103
g92
tp104
a(S'10:39:00'
p105
g7
tp106
a(S'18:12:00'
p107
g7
tp108
a(S'18:14:50'
p109
g60
tp110
a(S'18:15:27'
p111
g7
tp112
a(S'18:16:18'
p113
g10
tp114
a(S'18:16:33'
p115
g7
tp116
a(S'18:18:29'
p117
g29
tp118
a(S'18:20:09'
p119
g21
tp120
a(S'18:20:39'
p121
g29
tp122
a(S'18:21:49'
p123
g21
tp124
a(S'18:22:19'
p125
g29
tp126
a(S'18:24:13'
p127
g21
tp128
a(S'18:24:43'
p129
g29
tp130
a(S'18:26:16'
p131
g21
tp132
a(S'18:26:46'
p133
g29
tp134
a(S'18:27:55'
p135
g21
tp136
a(S'18:28:25'
p137
g29
tp138
a(S'18:29:23'
p139
g21
tp140
a(S'18:29:53'
p141
g29
tp142
a(S'18:31:01'
p143
g21
tp144
a(S'18:31:31'
p145
g29
tp146
a(S'18:32:22'
p147
g21
tp148
a(S'18:32:52'
p149
g29
tp150
a(S'18:33:45'
p151
g21
tp152
a(S'18:34:15'
p153
g29
tp154
a(S'18:35:11'
p155
g21
tp156
a(S'18:35:41'
p157
g29
tp158
a(S'18:36:54'
p159
g21
tp160
a(S'18:37:04'
p161
g7
tp162
a(S'18:37:22'
p163
g44
tp164
a(S'18:37:32'
p165
g7
tp166
a(S'18:38:02'
p167
g44
tp168
a(S'18:38:17'
p169
g7
tp170
asS'2017-3-21'
p171
(lp172
(S'08:49:00'
p173
g29
tp174
a(S'08:59:52'
p175
g21
tp176
a(S'09:00:02'
p177
g7
tp178
a(S'09:02:00'
p179
g4
tp180
a(S'09:04:29'
p181
g29
tp182
a(S'09:07:06'
p183
g29
tp184
a(S'09:08:07'
p185
g21
tp186
a(S'09:08:12'
p187
g7
tp188
a(S'17:39:00'
p189
g29
tp190
a(S'17:40:30'
p191
g21
tp192
a(S'17:40:59'
p193
g29
tp194
a(S'17:44:27'
p195
g21
tp196
a(S'17:44:57'
p197
g29
tp198
a(S'17:47:50'
p199
g21
tp200
a(S'17:47:55'
p201
g7
tp202
a(S'17:50:31'
p203
g60
tp204
a(S'17:50:57'
p205
g7
tp206
a(S'17:52:48'
p207
g29
tp208
a(S'17:54:26'
p209
g21
tp210
a(S'17:54:44'
p211
g29
tp212
a(S'17:56:00'
p213
g21
tp214
a(S'17:56:20'
p215
g29
tp216
a(S'17:57:27'
p217
g21
tp218
a(S'17:57:47'
p219
g29
tp220
a(S'17:59:13'
p221
g21
tp222
a(S'17:59:33'
p223
g29
tp224
a(S'18:00:46'
p225
g21
tp226
a(S'18:01:06'
p227
g29
tp228
a(S'18:02:28'
p229
g21
tp230
a(S'18:02:33'
p231
g7
tp232
as.