(dp0
S'2017-3-20'
p1
(lp2
(S'7:33:33'
p3
S'D'
p4
tp5
a(S'7:41:55'
p6
S'W'
p7
tp8
a(S'7:49:01'
p9
g4
tp10
a(S'7:52:45'
p11
g7
tp12
a(S'7:55:45'
p13
S'S_D'
p14
tp15
a(S'7:55:53'
p16
S'P_W'
p17
tp18
a(S'7:56:53'
p19
S'P_S'
p20
tp21
a(S'8:00:23'
p22
S'T_B'
p23
tp24
a(S'8:16:15'
p25
S'T_T'
p26
tp27
a(S'8:21:05'
p28
g23
tp29
a(S'8:30:30'
p30
S'T_E'
p31
tp32
a(S'8:31:15'
p33
S'S_U'
p34
tp35
a(S'8:31:20'
p36
g7
tp37
a(S'8:32:05'
p38
g34
tp39
a(S'8:32:10'
p40
g7
tp41
a(S'8:32:35'
p42
g34
tp43
a(S'8:32:50'
p44
g7
tp45
a(S'8:36:40'
p46
S'E_U'
p47
tp48
a(S'8:37:50'
p49
g7
tp50
a(S'8:30:10'
p51
g7
tp52
a(S'20:05:55'
p53
g7
tp54
a(S'20:06:30'
p55
S'E_D'
p56
tp57
a(S'20:07:05'
p58
g7
tp59
a(S'20:13:00'
p60
S'S'
p61
tp62
a(S'20:27:25'
p63
S'T_D'
p64
tp65
a(S'20:36:50'
p66
S'T_S'
p67
tp68
a(S'20:38:14'
p69
g64
tp70
a(S'20:44:10'
p71
g67
tp72
a(g71
g67
tp73
a(S'20:45:15'
p74
g64
tp75
a(S'20:46:51'
p76
g67
tp77
a(S'20:47:50'
p78
g64
tp79
a(S'20:49:15'
p80
g67
tp81
a(S'20:50:50'
p82
g64
tp83
a(S'20:51:15'
p84
g67
tp85
a(S'20:54:04'
p86
g64
tp87
a(S'20:53:59'
p88
g31
tp89
a(S'20:54:50'
p90
g34
tp91
a(S'20:55:05'
p92
g7
tp93
a(S'20:57:05'
p94
g4
tp95
a(S'21:08:45'
p96
g7
tp97
asS'2017-3-21'
p98
(lp99
(S'7:33:10'
p100
g7
tp101
a(S'7:34:15'
p102
g4
tp103
a(S'7:48:15'
p104
g7
tp105
a(S'7:50:30'
p106
g4
tp107
a(S'7:55:30'
p108
g7
tp109
a(S'8:01:05'
p110
g64
tp111
a(S'8:17:15'
p112
g67
tp113
a(S'8:20:15'
p114
g64
tp115
a(S'8:28:20'
p116
g31
tp117
a(g116
g7
tp118
a(S'8:35:30'
p119
g47
tp120
a(S'8:35:50'
p121
g7
tp122
a(S'19:00:00'
p123
g7
tp124
a(S'19:08:05'
p125
g61
tp126
a(S'19:15:27'
p127
g64
tp128
a(S'19:24:05'
p129
g67
tp130
a(S'19:24:50'
p131
g64
tp132
a(S'19:32:39'
p133
g67
tp134
a(S'19:33:49'
p135
g64
tp136
a(S'19:35:28'
p137
g67
tp138
a(S'19:36:10'
p139
g64
tp140
a(S'19:37:44'
p141
g67
tp142
a(S'19:38:38'
p143
g64
tp144
a(S'19:39:59'
p145
g67
tp146
a(S'19:40:36'
p147
g64
tp148
a(S'19:42:21'
p149
g67
tp150
a(S'19:42:26'
p151
g7
tp152
a(S'19:48:27'
p153
g4
tp154
a(S'19:59:55'
p155
g7
tp156
asS'2017-3-22'
p157
(lp158
(S'7:40:20'
p159
g4
tp160
a(S'7:41:55'
p161
g4
tp162
a(S'7:52:52'
p163
g7
tp164
a(S'7:55:18'
p165
g61
tp166
a(S'8:01:20'
p167
g64
tp168
a(S'8:14:00'
p169
g26
tp170
a(S'8:17:00'
p171
g64
tp172
a(S'8:25:59'
p173
g31
tp174
a(S'8:26:04'
p175
g7
tp176
a(S'8:33:27'
p177
g47
tp178
a(S'8:34:31'
p179
g7
tp180
a(S'20:29:15'
p181
g7
tp182
a(S'20:32:40'
p183
g56
tp184
a(S'20:33:15'
p185
g7
tp186
a(S'20:49:16'
p187
g64
tp188
a(S'20:58:37'
p189
g67
tp190
a(S'20:59:05'
p191
g64
tp192
a(S'21:06:08'
p193
g67
tp194
a(S'21:07:03'
p195
g64
tp196
a(S'21:08:50'
p197
g67
tp198
a(S'21:09:28'
p199
g64
tp200
a(S'21:10:48'
p201
g67
tp202
a(S'21:11:21'
p203
g64
tp204
a(S'21:12:50'
p205
g67
tp206
a(S'21:13:24'
p207
g64
tp208
a(S'21:15:09'
p209
g67
tp210
a(S'21:16:35'
p211
g4
tp212
a(S'21:32:45'
p213
g7
tp214
asS'2017-3-23'
p215
(lp216
(S'07:22:41'
p217
g7
tp218
a(S'8:01:15'
p219
g64
tp220
a(S'8:13:31'
p221
g67
tp222
a(S'8:17:44'
p223
g64
tp224
a(S'8:27:46'
p225
g31
tp226
a(S'8:27:51'
p227
g7
tp228
a(S'8:33:29'
p229
g47
tp230
a(S'8:34:05'
p231
g7
tp232
a(S'19:42:55'
p233
g7
tp234
a(S'19:43:57'
p235
g56
tp236
a(S'19:45:08'
p237
g7
tp238
a(S'20:08:55'
p239
g61
tp240
a(S'20:29:00'
p241
g7
tp242
a(S'20:33:20'
p243
g61
tp244
a(S'20:51:10'
p245
g64
tp246
a(S'21:01:27'
p247
g67
tp248
a(S'21:02:35'
p249
g64
tp250
a(S'21:08:06'
p251
g67
tp252
a(S'21:09:29'
p253
g64
tp254
a(S'21:11:16'
p255
g67
tp256
a(S'21:12:14'
p257
g64
tp258
a(S'21:14:01'
p259
g67
tp260
a(S'21:15:05'
p261
g64
tp262
a(S'21:16:25'
p263
g67
tp264
a(S'21:17:24'
p265
g64
tp266
a(S'21:19:30'
p267
g31
tp268
a(S'21:19:35'
p269
g7
tp270
a(S'21:21:35'
p271
g4
tp272
as.